target datalayout = "e-m:e-p270:32:32-p271:32:32-p272:64:64-i64:64-i128:128-f80:128-n8:16:32:64-S128"
target triple = "x86_64-pc-linux-gnu"

%struct.strvec = type { ptr, i64, i64 }
%struct.maintenance_run_opts = type { i32, i32, i32, i32 }
%struct.child_process = type { %struct.strvec, %struct.strvec, i32, i32, i64, ptr, ptr, i32, i32, i32, ptr, i16, ptr }

@.str.26 = private unnamed_addr constant [6 x i8] c"--all\00", align 1
@.str.97 = private unnamed_addr constant [10 x i8] c"pack-refs\00", align 1
@.str.98 = private unnamed_addr constant [8 x i8] c"--prune\00", align 1
@.str.99 = private unnamed_addr constant [7 x i8] c"--auto\00", align 1

; Function Attrs: nounwind uwtable
define internal i32 @maintenance_task_pack_refs(ptr noundef %0, ptr noundef %1) #0 {
  %3 = alloca ptr, align 8
  %4 = alloca ptr, align 8
  %5 = alloca %struct.child_process, align 8
  store ptr %0, ptr %3, align 8, !tbaa !109
  store ptr %1, ptr %4, align 8, !tbaa !90
  call void @llvm.lifetime.start.p0(i64 120, ptr %5) #11
  call void @llvm.memcpy.p0.p0.i64(ptr align 8 %5, ptr align 8 @__const.maintenance_task_pack_refs.cmd, i64 120, i1 false)
  %6 = getelementptr inbounds nuw %struct.child_process, ptr %5, i32 0, i32 11
  %7 = load i16, ptr %6, align 8
  %8 = and i16 %7, -9
  %9 = or i16 %8, 8
  store i16 %9, ptr %6, align 8
  %10 = getelementptr inbounds nuw %struct.child_process, ptr %5, i32 0, i32 0
  call void (ptr, ...) @strvec_pushl(ptr noundef %10, ptr noundef @.str.97, ptr noundef @.str.26, ptr noundef @.str.98, ptr noundef null)
  %11 = load ptr, ptr %3, align 8, !tbaa !109
  %12 = getelementptr inbounds nuw %struct.maintenance_run_opts, ptr %11, i32 0, i32 0
  %13 = load i32, ptr %12, align 4, !tbaa !47
  %14 = icmp ne i32 %13, 0
  br i1 %14, label %15, label %18

15:                                               ; preds = %2
  %16 = getelementptr inbounds nuw %struct.child_process, ptr %5, i32 0, i32 0
  %17 = call ptr @strvec_push(ptr noundef %16, ptr noundef @.str.99)
  br label %18

18:                                               ; preds = %15, %2
  %19 = call i32 @run_command(ptr noundef %5)
  call void @llvm.lifetime.end.p0(i64 120, ptr %5) #11
  ret i32 %19
}