; Function Attrs: nounwind uwtable
define internal i32 @maintenance_task_pack_refs(ptr noundef readonly captures(none) %0, ptr readnone captures(none) %1) #0 {
  %3 = alloca %struct.child_process, align 8
  call void @llvm.lifetime.start.p0(i64 120, ptr nonnull %3) #21
  call void @llvm.memcpy.p0.p0.i64(ptr noundef nonnull align 8 dereferenceable(120) %3, ptr noundef nonnull align 8 dereferenceable(120) @__const.schtasks_remove_task.child, i64 120, i1 false)
  %4 = getelementptr inbounds nuw i8, ptr %3, i64 104
  store i16 8, ptr %4, align 8
  call void (ptr, ...) @strvec_pushl(ptr noundef nonnull %3, ptr noundef nonnull @.str.97, ptr noundef nonnull @.str.26, ptr noundef nonnull @.str.98, ptr noundef null) #21
  %5 = load i32, ptr %0, align 4, !tbaa !37
  %.not = icmp eq i32 %5, 0
  br i1 %.not, label %8, label %6

6:                                                ; preds = %2
  %7 = call ptr @strvec_push(ptr noundef nonnull %3, ptr noundef nonnull @.str.99) #21
  br label %8

8:                                                ; preds = %6, %2
  %9 = call i32 @run_command(ptr noundef nonnull %3) #21
  call void @llvm.lifetime.end.p0(i64 120, ptr nonnull %3) #21
  ret i32 %9
}